
pwn3_e490be0dae526433cf52559900f18026:     file format elf32-i386


Disassembly of section .init:

080483c4 <.init>:
 80483c4:	53                   	push   %ebx
 80483c5:	83 ec 08             	sub    $0x8,%esp
 80483c8:	e8 f3 00 00 00       	call   80484c0 <atoi@plt+0x40>
 80483cd:	81 c3 33 1c 00 00    	add    $0x1c33,%ebx
 80483d3:	8b 83 fc ff ff ff    	mov    -0x4(%ebx),%eax
 80483d9:	85 c0                	test   %eax,%eax
 80483db:	74 05                	je     80483e2 <setbuf@plt-0x1e>
 80483dd:	e8 6e 00 00 00       	call   8048450 <__gmon_start__@plt>
 80483e2:	83 c4 08             	add    $0x8,%esp
 80483e5:	5b                   	pop    %ebx
 80483e6:	c3                   	ret    

Disassembly of section .plt:

080483f0 <setbuf@plt-0x10>:
 80483f0:	ff 35 04 a0 04 08    	pushl  0x804a004
 80483f6:	ff 25 08 a0 04 08    	jmp    *0x804a008
 80483fc:	00 00                	add    %al,(%eax)
	...

08048400 <setbuf@plt>:
 8048400:	ff 25 0c a0 04 08    	jmp    *0x804a00c
 8048406:	68 00 00 00 00       	push   $0x0
 804840b:	e9 e0 ff ff ff       	jmp    80483f0 <setbuf@plt-0x10>

08048410 <printf@plt>:
 8048410:	ff 25 10 a0 04 08    	jmp    *0x804a010
 8048416:	68 08 00 00 00       	push   $0x8
 804841b:	e9 d0 ff ff ff       	jmp    80483f0 <setbuf@plt-0x10>

08048420 <fgets@plt>:
 8048420:	ff 25 14 a0 04 08    	jmp    *0x804a014
 8048426:	68 10 00 00 00       	push   $0x10
 804842b:	e9 c0 ff ff ff       	jmp    80483f0 <setbuf@plt-0x10>

08048430 <fread@plt>:
 8048430:	ff 25 18 a0 04 08    	jmp    *0x804a018
 8048436:	68 18 00 00 00       	push   $0x18
 804843b:	e9 b0 ff ff ff       	jmp    80483f0 <setbuf@plt-0x10>

08048440 <malloc@plt>:
 8048440:	ff 25 1c a0 04 08    	jmp    *0x804a01c
 8048446:	68 20 00 00 00       	push   $0x20
 804844b:	e9 a0 ff ff ff       	jmp    80483f0 <setbuf@plt-0x10>

08048450 <__gmon_start__@plt>:
 8048450:	ff 25 20 a0 04 08    	jmp    *0x804a020
 8048456:	68 28 00 00 00       	push   $0x28
 804845b:	e9 90 ff ff ff       	jmp    80483f0 <setbuf@plt-0x10>

08048460 <strlen@plt>:
 8048460:	ff 25 24 a0 04 08    	jmp    *0x804a024
 8048466:	68 30 00 00 00       	push   $0x30
 804846b:	e9 80 ff ff ff       	jmp    80483f0 <setbuf@plt-0x10>

08048470 <__libc_start_main@plt>:
 8048470:	ff 25 28 a0 04 08    	jmp    *0x804a028
 8048476:	68 38 00 00 00       	push   $0x38
 804847b:	e9 70 ff ff ff       	jmp    80483f0 <setbuf@plt-0x10>

08048480 <atoi@plt>:
 8048480:	ff 25 2c a0 04 08    	jmp    *0x804a02c
 8048486:	68 40 00 00 00       	push   $0x40
 804848b:	e9 60 ff ff ff       	jmp    80483f0 <setbuf@plt-0x10>

Disassembly of section .text:

08048490 <.text>:
 8048490:	31 ed                	xor    %ebp,%ebp
 8048492:	5e                   	pop    %esi
 8048493:	89 e1                	mov    %esp,%ecx
 8048495:	83 e4 f0             	and    $0xfffffff0,%esp
 8048498:	50                   	push   %eax
 8048499:	54                   	push   %esp
 804849a:	52                   	push   %edx
 804849b:	68 60 88 04 08       	push   $0x8048860
 80484a0:	68 f0 87 04 08       	push   $0x80487f0
 80484a5:	51                   	push   %ecx
 80484a6:	56                   	push   %esi
 80484a7:	68 da 85 04 08       	push   $0x80485da
 80484ac:	e8 bf ff ff ff       	call   8048470 <__libc_start_main@plt>
 80484b1:	f4                   	hlt    
 80484b2:	66 90                	xchg   %ax,%ax
 80484b4:	66 90                	xchg   %ax,%ax
 80484b6:	66 90                	xchg   %ax,%ax
 80484b8:	66 90                	xchg   %ax,%ax
 80484ba:	66 90                	xchg   %ax,%ax
 80484bc:	66 90                	xchg   %ax,%ax
 80484be:	66 90                	xchg   %ax,%ax
 80484c0:	8b 1c 24             	mov    (%esp),%ebx
 80484c3:	c3                   	ret    
 80484c4:	66 90                	xchg   %ax,%ax
 80484c6:	66 90                	xchg   %ax,%ax
 80484c8:	66 90                	xchg   %ax,%ax
 80484ca:	66 90                	xchg   %ax,%ax
 80484cc:	66 90                	xchg   %ax,%ax
 80484ce:	66 90                	xchg   %ax,%ax
 80484d0:	b8 3b a0 04 08       	mov    $0x804a03b,%eax
 80484d5:	2d 38 a0 04 08       	sub    $0x804a038,%eax
 80484da:	83 f8 06             	cmp    $0x6,%eax
 80484dd:	77 01                	ja     80484e0 <atoi@plt+0x60>
 80484df:	c3                   	ret    
 80484e0:	b8 00 00 00 00       	mov    $0x0,%eax
 80484e5:	85 c0                	test   %eax,%eax
 80484e7:	74 f6                	je     80484df <atoi@plt+0x5f>
 80484e9:	55                   	push   %ebp
 80484ea:	89 e5                	mov    %esp,%ebp
 80484ec:	83 ec 18             	sub    $0x18,%esp
 80484ef:	c7 04 24 38 a0 04 08 	movl   $0x804a038,(%esp)
 80484f6:	ff d0                	call   *%eax
 80484f8:	c9                   	leave  
 80484f9:	c3                   	ret    
 80484fa:	8d b6 00 00 00 00    	lea    0x0(%esi),%esi
 8048500:	b8 38 a0 04 08       	mov    $0x804a038,%eax
 8048505:	2d 38 a0 04 08       	sub    $0x804a038,%eax
 804850a:	c1 f8 02             	sar    $0x2,%eax
 804850d:	89 c2                	mov    %eax,%edx
 804850f:	c1 ea 1f             	shr    $0x1f,%edx
 8048512:	01 d0                	add    %edx,%eax
 8048514:	d1 f8                	sar    %eax
 8048516:	75 01                	jne    8048519 <atoi@plt+0x99>
 8048518:	c3                   	ret    
 8048519:	ba 00 00 00 00       	mov    $0x0,%edx
 804851e:	85 d2                	test   %edx,%edx
 8048520:	74 f6                	je     8048518 <atoi@plt+0x98>
 8048522:	55                   	push   %ebp
 8048523:	89 e5                	mov    %esp,%ebp
 8048525:	83 ec 18             	sub    $0x18,%esp
 8048528:	89 44 24 04          	mov    %eax,0x4(%esp)
 804852c:	c7 04 24 38 a0 04 08 	movl   $0x804a038,(%esp)
 8048533:	ff d2                	call   *%edx
 8048535:	c9                   	leave  
 8048536:	c3                   	ret    
 8048537:	89 f6                	mov    %esi,%esi
 8048539:	8d bc 27 00 00 00 00 	lea    0x0(%edi,%eiz,1),%edi
 8048540:	80 3d 64 a0 04 08 00 	cmpb   $0x0,0x804a064
 8048547:	75 13                	jne    804855c <atoi@plt+0xdc>
 8048549:	55                   	push   %ebp
 804854a:	89 e5                	mov    %esp,%ebp
 804854c:	83 ec 08             	sub    $0x8,%esp
 804854f:	e8 7c ff ff ff       	call   80484d0 <atoi@plt+0x50>
 8048554:	c6 05 64 a0 04 08 01 	movb   $0x1,0x804a064
 804855b:	c9                   	leave  
 804855c:	f3 c3                	repz ret 
 804855e:	66 90                	xchg   %ax,%ax
 8048560:	a1 10 9f 04 08       	mov    0x8049f10,%eax
 8048565:	85 c0                	test   %eax,%eax
 8048567:	74 1f                	je     8048588 <atoi@plt+0x108>
 8048569:	b8 00 00 00 00       	mov    $0x0,%eax
 804856e:	85 c0                	test   %eax,%eax
 8048570:	74 16                	je     8048588 <atoi@plt+0x108>
 8048572:	55                   	push   %ebp
 8048573:	89 e5                	mov    %esp,%ebp
 8048575:	83 ec 18             	sub    $0x18,%esp
 8048578:	c7 04 24 10 9f 04 08 	movl   $0x8049f10,(%esp)
 804857f:	ff d0                	call   *%eax
 8048581:	c9                   	leave  
 8048582:	e9 79 ff ff ff       	jmp    8048500 <atoi@plt+0x80>
 8048587:	90                   	nop
 8048588:	e9 73 ff ff ff       	jmp    8048500 <atoi@plt+0x80>
 
 '''''''''''''''''''''''''''''''''''''''输入函数选项'''''''''''''''''''''''''''''''''''''''''''''
 804858d:	55                   	push   %ebp
 804858e:	89 e5                	mov    %esp,%ebp
 8048590:	83 ec 28             	sub    $0x28,%esp
 8048593:	a1 40 a0 04 08       	mov    0x804a040,%eax
 8048598:	89 44 24 08          	mov    %eax,0x8(%esp)
 804859c:	c7 44 24 04 0a 00 00 	movl   $0xa,0x4(%esp)
 80485a3:	00 
 80485a4:	8d 45 ee             	lea    -0x12(%ebp),%eax
 80485a7:	89 04 24             	mov    %eax,(%esp)
 80485aa:	e8 71 fe ff ff       	call   8048420 <fgets@plt>
 80485af:	8d 45 ee             	lea    -0x12(%ebp),%eax
 80485b2:	89 04 24             	mov    %eax,(%esp)
 80485b5:	e8 c6 fe ff ff       	call   8048480 <atoi@plt>
 80485ba:	c9                   	leave  
 80485bb:	c3                   	ret    
 ''''''''''''''''''''''''''''''''''''''''''''''''''''''''''''''''''''''''''''''''''''
 
 
 '''''''''''''''''''''''''''''''''''''''''''''''有问题的函数''''''''''''''''''''''''''''''''''''''
 80485bc:	55                   	push   %ebp
 80485bd:	89 e5                	mov    %esp,%ebp
 80485bf:	83 ec 18             	sub    $0x18,%esp
 80485c2:	8b 45 08             	mov    0x8(%ebp),%eax
 80485c5:	c7 40 08 da da da da 	movl   $0xdadadada,0x8(%eax)
 80485cc:	c7 04 24 80 88 04 08 	movl   $0x8048880,(%esp)
 80485d3:	e8 38 fe ff ff       	call   8048410 <printf@plt>
 80485d8:	c9                   	leave  
 80485d9:	c3                   	ret    
 '''''''''''''''''''''''''''''''''''''''''''''''有问题的函数''''''''''''''''''''''''''''''''''''''
 
 
 
 80485da:	55                   	push   %ebp
 80485db:	89 e5                	mov    %esp,%ebp
 80485dd:	53                   	push   %ebx
 80485de:	83 e4 f0             	and    $0xfffffff0,%esp
 80485e1:	83 ec 30             	sub    $0x30,%esp
 80485e4:	a1 60 a0 04 08       	mov    0x804a060,%eax
 80485e9:	c7 44 24 04 00 00 00 	movl   $0x0,0x4(%esp)
 80485f0:	00 
 80485f1:	89 04 24             	mov    %eax,(%esp)
 80485f4:	e8 07 fe ff ff       	call   8048400 <setbuf@plt>
 80485f9:	c7 04 24 86 88 04 08 	movl   $0x8048886,(%esp)
 8048600:	e8 0b fe ff ff       	call   8048410 <printf@plt>
 8048605:	c7 44 24 20 00 00 00 	movl   $0x0,0x20(%esp)
 804860c:	00 
 804860d:	c7 04 24 80 00 00 00 	movl   $0x80,(%esp)
 8048614:	e8 27 fe ff ff       	call   8048440 <malloc@plt>
 8048619:	89 44 24 24          	mov    %eax,0x24(%esp)
 804861d:	c7 04 24 a4 88 04 08 	movl   $0x80488a4,(%esp)
 8048624:	e8 e7 fd ff ff       	call   8048410 <printf@plt>
 8048629:	a1 40 a0 04 08       	mov    0x804a040,%eax
 804862e:	89 44 24 08          	mov    %eax,0x8(%esp)
 8048632:	c7 44 24 04 09 00 00 	movl   $0x9,0x4(%esp)
 8048639:	00 
 804863a:	8d 44 24 18          	lea    0x18(%esp),%eax
 804863e:	89 04 24             	mov    %eax,(%esp)
 8048641:	e8 da fd ff ff       	call   8048420 <fgets@plt>
 8048646:	c7 44 24 2c 00 00 00 	movl   $0x0,0x2c(%esp)
 804864d:	00 
 
 '''''''''''''''''''''''''''''''''''''''循环开始''''''''''''''''''''''''''''''''''''''''''''''''
 804864e:	c7 04 24 d0 88 04 08 	movl   $0x80488d0,(%esp)
 8048655:	e8 b6 fd ff ff       	call   8048410 <printf@plt>
 804865a:	c7 04 24 ec 88 04 08 	movl   $0x80488ec,(%esp)
 8048661:	e8 aa fd ff ff       	call   8048410 <printf@plt>
 8048666:	c7 04 24 04 89 04 08 	movl   $0x8048904,(%esp)
 804866d:	e8 9e fd ff ff       	call   8048410 <printf@plt>
 8048672:	c7 04 24 28 89 04 08 	movl   $0x8048928,(%esp)
 8048679:	e8 92 fd ff ff       	call   8048410 <printf@plt>
 804867e:	c7 04 24 44 89 04 08 	movl   $0x8048944,(%esp)
 8048685:	e8 86 fd ff ff       	call   8048410 <printf@plt>
 804868a:	c7 04 24 5f 89 04 08 	movl   $0x804895f,(%esp)
 8048691:	e8 7a fd ff ff       	call   8048410 <printf@plt>
 8048696:	c7 04 24 75 89 04 08 	movl   $0x8048975,(%esp)
 804869d:	e8 6e fd ff ff       	call   8048410 <printf@plt>
 80486a2:	e8 e6 fe ff ff       	call   804858d <atoi@plt+0x10d>
 80486a7:	89 44 24 2c          	mov    %eax,0x2c(%esp)
 
 
 ''''''''''''''''''''''''''''''''''''''''update team id''''''''''''''''''''''''''''''''''''''''''''''''
 80486ab:	83 7c 24 2c 01       	cmpl   $0x1,0x2c(%esp)
 80486b0:	75 44                	jne    80486f6 <atoi@plt+0x276>
 80486b2:	c7 04 24 7a 89 04 08 	movl   $0x804897a,(%esp)
 80486b9:	e8 52 fd ff ff       	call   8048410 <printf@plt>
 80486be:	8b 1d 40 a0 04 08    	mov    0x804a040,%ebx
 80486c4:	8d 44 24 18          	lea    0x18(%esp),%eax
 80486c8:	89 04 24             	mov    %eax,(%esp)
 80486cb:	e8 90 fd ff ff       	call   8048460 <strlen@plt>
 80486d0:	89 5c 24 0c          	mov    %ebx,0xc(%esp)
 80486d4:	c7 44 24 08 01 00 00 	movl   $0x1,0x8(%esp)
 80486db:	00 
 80486dc:	89 44 24 04          	mov    %eax,0x4(%esp)
 80486e0:	8d 44 24 18          	lea    0x18(%esp),%eax
 80486e4:	89 04 24             	mov    %eax,(%esp)
 80486e7:	e8 44 fd ff ff       	call   8048430 <fread@plt>
 80486ec:	c6 44 24 1f 00       	movb   $0x0,0x1f(%esp)
 80486f1:	e9 e9 00 00 00       	jmp    80487df <atoi@plt+0x35f>
 ''''''''''''''''''''''''''''''''''''''''update team id''''''''''''''''''''''''''''''''''''''''''''''''
 
 
 ''''''''''''''''''''''''''''''''''''''''update the members of the team''''''''''''''''''''''''''''''''''''''''''''''''
 80486f6:	83 7c 24 2c 02       	cmpl   $0x2,0x2c(%esp)
 80486fb:	75 55                	jne    8048752 <atoi@plt+0x2d2>
 80486fd:	c7 04 24 90 89 04 08 	movl   $0x8048990,(%esp)
 8048704:	e8 07 fd ff ff       	call   8048410 <printf@plt>
 8048709:	c7 44 24 28 00 00 00 	movl   $0x0,0x28(%esp)
 8048710:	00 
 8048711:	e8 77 fe ff ff       	call   804858d <atoi@plt+0x10d>
 8048716:	89 44 24 28          	mov    %eax,0x28(%esp)
 804871a:	83 7c 24 28 7f       	cmpl   $0x7f,0x28(%esp)
 804871f:	7f 20                	jg     8048741 <atoi@plt+0x2c1>
 8048721:	83 7c 24 28 00       	cmpl   $0x0,0x28(%esp)
 8048726:	78 19                	js     8048741 <atoi@plt+0x2c1>
 8048728:	8b 44 24 28          	mov    0x28(%esp),%eax
 804872c:	89 44 24 20          	mov    %eax,0x20(%esp)
 8048730:	c7 04 24 af 89 04 08 	movl   $0x80489af,(%esp)
 8048737:	e8 d4 fc ff ff       	call   8048410 <printf@plt>
 804873c:	e9 9e 00 00 00       	jmp    80487df <atoi@plt+0x35f>
 8048741:	c7 04 24 b9 89 04 08 	movl   $0x80489b9,(%esp)
 8048748:	e8 c3 fc ff ff       	call   8048410 <printf@plt>
 804874d:	e9 8d 00 00 00       	jmp    80487df <atoi@plt+0x35f>
 ''''''''''''''''''''''''''''''''''''''''update the members of the team''''''''''''''''''''''''''''''''''''''''''''''''
 
 
 ''''''''''''''''''''''''''''''''''''''''update the team's name''''''''''''''''''''''''''''''''''''''''''''''''
 8048752:	83 7c 24 2c 03       	cmpl   $0x3,0x2c(%esp)
 8048757:	75 45                	jne    804879e <atoi@plt+0x31e>
 8048759:	8b 44 24 20          	mov    0x20(%esp),%eax
 804875d:	3d 80 00 00 00       	cmp    $0x80,%eax
 8048762:	7f 08                	jg     804876c <atoi@plt+0x2ec>
 8048764:	8b 44 24 20          	mov    0x20(%esp),%eax
 8048768:	85 c0                	test   %eax,%eax
 804876a:	79 0e                	jns    804877a <atoi@plt+0x2fa>
 804876c:	c7 04 24 b9 89 04 08 	movl   $0x80489b9,(%esp)
 8048773:	e8 98 fc ff ff       	call   8048410 <printf@plt>
 8048778:	eb 65                	jmp    80487df <atoi@plt+0x35f> 
 804877a:	8b 0d 40 a0 04 08    	mov    0x804a040,%ecx
 8048780:	8b 54 24 20          	mov    0x20(%esp),%edx
 8048784:	8b 44 24 24          	mov    0x24(%esp),%eax
 8048788:	89 4c 24 08          	mov    %ecx,0x8(%esp)
 804878c:	89 54 24 04          	mov    %edx,0x4(%esp)
 8048790:	89 04 24             	mov    %eax,(%esp)
 8048793:	e8 88 fc ff ff       	call   8048420 <fgets@plt>
 8048798:	89 44 24 24          	mov    %eax,0x24(%esp)
 804879c:	eb 41                	jmp    80487df <atoi@plt+0x35f>
 ''''''''''''''''''''''''''''''''''''''''update the team's name''''''''''''''''''''''''''''''''''''''''''''''''
 
 
 ''''''''''''''''''''''''''''''''''''''''print the team's name''''''''''''''''''''''''''''''''''''''''''''''''
 804879e:	83 7c 24 2c 04       	cmpl   $0x4,0x2c(%esp)
 80487a3:	75 22                	jne    80487c7 <atoi@plt+0x347>
 80487a5:	c7 04 24 c5 89 04 08 	movl   $0x80489c5,(%esp)
 80487ac:	e8 5f fc ff ff       	call   8048410 <printf@plt>
 80487b1:	8b 44 24 24          	mov    0x24(%esp),%eax
 80487b5:	89 44 24 04          	mov    %eax,0x4(%esp)
 80487b9:	c7 04 24 dd 89 04 08 	movl   $0x80489dd,(%esp)
 80487c0:	e8 4b fc ff ff       	call   8048410 <printf@plt>
 80487c5:	eb 18                	jmp    80487df <atoi@plt+0x35f>
 ''''''''''''''''''''''''''''''''''''''''print the team's name''''''''''''''''''''''''''''''''''''''''''''''''


 ''''''''''''''''''''''''''''''''''''''''print the logo''''''''''''''''''''''''''''''''''''''''''''''''
 80487c7:	83 7c 24 2c 05       	cmpl   $0x5,0x2c(%esp)
 80487cc:	75 11                	jne    80487df <atoi@plt+0x35f>
 80487ce:	8d 44 24 18          	lea    0x18(%esp),%eax
 80487d2:	89 04 24             	mov    %eax,(%esp)
 80487d5:	e8 e2 fd ff ff       	call   80485bc <atoi@plt+0x13c>
 80487da:	e9 6f fe ff ff       	jmp    804864e <atoi@plt+0x1ce>
 ''''''''''''''''''''''''''''''''''''''''print the logo''''''''''''''''''''''''''''''''''''''''''''''''
 
 
 
 80487df:	e9 6a fe ff ff       	jmp    804864e <atoi@plt+0x1ce>
 
 
 80487e4:	66 90                	xchg   %ax,%ax
 80487e6:	66 90                	xchg   %ax,%ax
 80487e8:	66 90                	xchg   %ax,%ax
 80487ea:	66 90                	xchg   %ax,%ax
 80487ec:	66 90                	xchg   %ax,%ax
 80487ee:	66 90                	xchg   %ax,%ax
 80487f0:	55                   	push   %ebp
 80487f1:	57                   	push   %edi
 80487f2:	31 ff                	xor    %edi,%edi
 80487f4:	56                   	push   %esi
 80487f5:	53                   	push   %ebx
 80487f6:	e8 c5 fc ff ff       	call   80484c0 <atoi@plt+0x40>
 80487fb:	81 c3 05 18 00 00    	add    $0x1805,%ebx
 8048801:	83 ec 1c             	sub    $0x1c,%esp
 8048804:	8b 6c 24 30          	mov    0x30(%esp),%ebp
 8048808:	8d b3 0c ff ff ff    	lea    -0xf4(%ebx),%esi
 804880e:	e8 b1 fb ff ff       	call   80483c4 <setbuf@plt-0x3c>
 8048813:	8d 83 08 ff ff ff    	lea    -0xf8(%ebx),%eax
 8048819:	29 c6                	sub    %eax,%esi
 804881b:	c1 fe 02             	sar    $0x2,%esi
 804881e:	85 f6                	test   %esi,%esi
 8048820:	74 27                	je     8048849 <atoi@plt+0x3c9>
 8048822:	8d b6 00 00 00 00    	lea    0x0(%esi),%esi
 8048828:	8b 44 24 38          	mov    0x38(%esp),%eax
 804882c:	89 2c 24             	mov    %ebp,(%esp)
 804882f:	89 44 24 08          	mov    %eax,0x8(%esp)
 8048833:	8b 44 24 34          	mov    0x34(%esp),%eax
 8048837:	89 44 24 04          	mov    %eax,0x4(%esp)
 804883b:	ff 94 bb 08 ff ff ff 	call   *-0xf8(%ebx,%edi,4)
 8048842:	83 c7 01             	add    $0x1,%edi
 8048845:	39 f7                	cmp    %esi,%edi
 8048847:	75 df                	jne    8048828 <atoi@plt+0x3a8>
 8048849:	83 c4 1c             	add    $0x1c,%esp
 804884c:	5b                   	pop    %ebx
 804884d:	5e                   	pop    %esi
 804884e:	5f                   	pop    %edi
 804884f:	5d                   	pop    %ebp
 8048850:	c3                   	ret    
 8048851:	eb 0d                	jmp    8048860 <atoi@plt+0x3e0>
 8048853:	90                   	nop
 8048854:	90                   	nop
 8048855:	90                   	nop
 8048856:	90                   	nop
 8048857:	90                   	nop
 8048858:	90                   	nop
 8048859:	90                   	nop
 804885a:	90                   	nop
 804885b:	90                   	nop
 804885c:	90                   	nop
 804885d:	90                   	nop
 804885e:	90                   	nop
 804885f:	90                   	nop
 8048860:	f3 c3                	repz ret 

Disassembly of section .fini:

08048864 <.fini>:
 8048864:	53                   	push   %ebx
 8048865:	83 ec 08             	sub    $0x8,%esp
 8048868:	e8 53 fc ff ff       	call   80484c0 <atoi@plt+0x40>
 804886d:	81 c3 93 17 00 00    	add    $0x1793,%ebx
 8048873:	83 c4 08             	add    $0x8,%esp
 8048876:	5b                   	pop    %ebx
 8048877:	c3                   	ret    
